; ModuleID = '20/1257.c'
source_filename = "20/1257.c"
target datalayout = "e-m:e-p270:32:32-p271:32:32-p272:64:64-i64:64-f80:128-n8:16:32:64-S128"
target triple = "x86_64-pc-linux-gnu"

@.str = private unnamed_addr constant [5 x i8] c"%s%s\00", align 1

; Function Attrs: noinline nounwind uwtable
define dso_local void @main() #0 {
  %1 = alloca [14 x i8], align 1
  %2 = alloca [4 x i8], align 1
  %3 = alloca i32, align 4
  %4 = alloca i32, align 4
  %5 = alloca i32, align 4
  store i32 0, i32* %3, align 4
  br label %6

6:                                                ; preds = %75, %0
  %7 = getelementptr inbounds [14 x i8], [14 x i8]* %1, i64 0, i64 0
  %8 = getelementptr inbounds [4 x i8], [4 x i8]* %2, i64 0, i64 0
  %9 = call i32 (i8*, ...) @__isoc99_scanf(i8* getelementptr inbounds ([5 x i8], [5 x i8]* @.str, i64 0, i64 0), i8* %7, i8* %8)
  %10 = icmp ne i32 %9, -1
  br i1 %10, label %11, label %82

11:                                               ; preds = %6
  %12 = getelementptr inbounds [14 x i8], [14 x i8]* %1, i64 0, i64 0
  %13 = call i64 @strlen(i8* %12) #3
  %14 = trunc i64 %13 to i32
  store i32 %14, i32* %5, align 4
  store i32 0, i32* %4, align 4
  br label %15

15:                                               ; preds = %34, %11
  %16 = load i32, i32* %4, align 4
  %17 = load i32, i32* %5, align 4
  %18 = icmp slt i32 %16, %17
  br i1 %18, label %19, label %37

19:                                               ; preds = %15
  %20 = load i32, i32* %4, align 4
  %21 = sext i32 %20 to i64
  %22 = getelementptr inbounds [14 x i8], [14 x i8]* %1, i64 0, i64 %21
  %23 = load i8, i8* %22, align 1
  %24 = sext i8 %23 to i32
  %25 = load i32, i32* %3, align 4
  %26 = sext i32 %25 to i64
  %27 = getelementptr inbounds [14 x i8], [14 x i8]* %1, i64 0, i64 %26
  %28 = load i8, i8* %27, align 1
  %29 = sext i8 %28 to i32
  %30 = icmp sgt i32 %24, %29
  br i1 %30, label %31, label %33

31:                                               ; preds = %19
  %32 = load i32, i32* %4, align 4
  store i32 %32, i32* %3, align 4
  br label %33

33:                                               ; preds = %31, %19
  br label %34

34:                                               ; preds = %33
  %35 = load i32, i32* %4, align 4
  %36 = add nsw i32 %35, 1
  store i32 %36, i32* %4, align 4
  br label %15

37:                                               ; preds = %15
  %38 = load i32, i32* %5, align 4
  %39 = sub nsw i32 %38, 1
  store i32 %39, i32* %4, align 4
  br label %40

40:                                               ; preds = %54, %37
  %41 = load i32, i32* %4, align 4
  %42 = load i32, i32* %3, align 4
  %43 = add nsw i32 %42, 1
  %44 = icmp sge i32 %41, %43
  br i1 %44, label %45, label %57

45:                                               ; preds = %40
  %46 = load i32, i32* %4, align 4
  %47 = sext i32 %46 to i64
  %48 = getelementptr inbounds [14 x i8], [14 x i8]* %1, i64 0, i64 %47
  %49 = load i8, i8* %48, align 1
  %50 = load i32, i32* %4, align 4
  %51 = add nsw i32 %50, 3
  %52 = sext i32 %51 to i64
  %53 = getelementptr inbounds [14 x i8], [14 x i8]* %1, i64 0, i64 %52
  store i8 %49, i8* %53, align 1
  br label %54

54:                                               ; preds = %45
  %55 = load i32, i32* %4, align 4
  %56 = add nsw i32 %55, -1
  store i32 %56, i32* %4, align 4
  br label %40

57:                                               ; preds = %40
  store i32 1, i32* %4, align 4
  br label %58

58:                                               ; preds = %72, %57
  %59 = load i32, i32* %4, align 4
  %60 = icmp sle i32 %59, 3
  br i1 %60, label %61, label %75

61:                                               ; preds = %58
  %62 = load i32, i32* %4, align 4
  %63 = sub nsw i32 %62, 1
  %64 = sext i32 %63 to i64
  %65 = getelementptr inbounds [4 x i8], [4 x i8]* %2, i64 0, i64 %64
  %66 = load i8, i8* %65, align 1
  %67 = load i32, i32* %3, align 4
  %68 = load i32, i32* %4, align 4
  %69 = add nsw i32 %67, %68
  %70 = sext i32 %69 to i64
  %71 = getelementptr inbounds [14 x i8], [14 x i8]* %1, i64 0, i64 %70
  store i8 %66, i8* %71, align 1
  br label %72

72:                                               ; preds = %61
  %73 = load i32, i32* %4, align 4
  %74 = add nsw i32 %73, 1
  store i32 %74, i32* %4, align 4
  br label %58

75:                                               ; preds = %58
  %76 = load i32, i32* %5, align 4
  %77 = add nsw i32 %76, 3
  %78 = sext i32 %77 to i64
  %79 = getelementptr inbounds [14 x i8], [14 x i8]* %1, i64 0, i64 %78
  store i8 0, i8* %79, align 1
  %80 = getelementptr inbounds [14 x i8], [14 x i8]* %1, i64 0, i64 0
  %81 = call i32 @puts(i8* %80)
  br label %6

82:                                               ; preds = %6
  ret void
}

declare dso_local i32 @__isoc99_scanf(i8*, ...) #1

; Function Attrs: nounwind readonly
declare dso_local i64 @strlen(i8*) #2

declare dso_local i32 @puts(i8*) #1


!llvm.module.flags = !{!0}
!llvm.ident = !{!1}

!0 = !{i32 1, !"wchar_size", i32 4}
!1 = !{!"clang version 10.0.0-4ubuntu1 "}
